target datalayout = "e-m:e-p270:32:32-p271:32:32-p272:64:64-i64:64-i128:128-f80:128-n8:16:32:64-S128"
target triple = "x86_64-pc-linux-gnu"

%"class.Imath_3_2::Box" = type { %"class.Imath_3_2::Vec2", %"class.Imath_3_2::Vec2" }
%"class.Imath_3_2::Vec2" = type { i32, i32 }
%"class.Imath_3_2::half" = type { i16 }
%"struct.Imf_3_4::Rgba" = type { %"class.Imath_3_2::half", %"class.Imath_3_2::half", %"class.Imath_3_2::half", %"class.Imath_3_2::half" }
%"class.Imath_3_2::Vec2.32" = type { float, float }
%"class.Imf_3_4::RgbaOutputFile" = type { ptr, ptr, ptr }

; Function Attrs: inlinehint mustprogress nounwind uwtable
define linkonce_odr dso_local noundef nonnull align 4 dereferenceable(8) ptr @_ZN9Imath_3_24Vec2IiEaSERKS1_(ptr noundef nonnull align 4 dereferenceable(8) %0, ptr noundef nonnull align 4 dereferenceable(8) %1) #10 comdat align 2 {
  %3 = alloca ptr, align 8
  %4 = alloca ptr, align 8
  store ptr %0, ptr %3, align 8, !tbaa !176
  store ptr %1, ptr %4, align 8, !tbaa !176
  %5 = load ptr, ptr %3, align 8
  %6 = load ptr, ptr %4, align 8, !tbaa !176
  %7 = getelementptr inbounds nuw %"class.Imath_3_2::Vec2", ptr %6, i32 0, i32 0
  %8 = load i32, ptr %7, align 4, !tbaa !178
  %9 = getelementptr inbounds nuw %"class.Imath_3_2::Vec2", ptr %5, i32 0, i32 0
  store i32 %8, ptr %9, align 4, !tbaa !178
  %10 = load ptr, ptr %4, align 8, !tbaa !176
  %11 = getelementptr inbounds nuw %"class.Imath_3_2::Vec2", ptr %10, i32 0, i32 1
  %12 = load i32, ptr %11, align 4, !tbaa !179
  %13 = getelementptr inbounds nuw %"class.Imath_3_2::Vec2", ptr %5, i32 0, i32 1
  store i32 %12, ptr %13, align 4, !tbaa !179
  ret ptr %5
}

; Function Attrs: inlinehint mustprogress nounwind uwtable
define linkonce_odr dso_local void @_ZN9Imath_3_24Vec2IiEC2Ev(ptr noundef nonnull align 4 dereferenceable(8) %0) unnamed_addr #10 comdat align 2 {
  %2 = alloca ptr, align 8
  store ptr %0, ptr %2, align 8, !tbaa !176
  ret void
}

; Function Attrs: inlinehint mustprogress nounwind uwtable
define linkonce_odr dso_local void @_ZN9Imath_3_24Vec2IfEC2Eff(ptr noundef nonnull align 4 dereferenceable(8) %0, float noundef %1, float noundef %2) unnamed_addr #10 comdat align 2 {
  %4 = alloca ptr, align 8
  %5 = alloca float, align 4
  %6 = alloca float, align 4
  store ptr %0, ptr %4, align 8, !tbaa !154
  store float %1, ptr %5, align 4, !tbaa !46
  store float %2, ptr %6, align 4, !tbaa !46
  %7 = load ptr, ptr %4, align 8
  %8 = getelementptr inbounds nuw %"class.Imath_3_2::Vec2.32", ptr %7, i32 0, i32 0
  %9 = load float, ptr %5, align 4, !tbaa !46
  store float %9, ptr %8, align 4, !tbaa !156
  %10 = getelementptr inbounds nuw %"class.Imath_3_2::Vec2.32", ptr %7, i32 0, i32 1
  %11 = load float, ptr %6, align 4, !tbaa !46
  store float %11, ptr %10, align 4, !tbaa !158
  ret void
}

; Function Attrs: inlinehint mustprogress nounwind uwtable
define linkonce_odr dso_local void @_ZN9Imath_3_23BoxINS_4Vec2IiEEEC2ERKS2_S5_(ptr noundef nonnull align 4 dereferenceable(16) %0, ptr noundef nonnull align 4 dereferenceable(8) %1, ptr noundef nonnull align 4 dereferenceable(8) %2) unnamed_addr #10 comdat align 2 {
  %4 = alloca ptr, align 8
  %5 = alloca ptr, align 8
  %6 = alloca ptr, align 8
  store ptr %0, ptr %4, align 8, !tbaa !50
  store ptr %1, ptr %5, align 8, !tbaa !176
  store ptr %2, ptr %6, align 8, !tbaa !176
  %7 = load ptr, ptr %4, align 8
  %8 = getelementptr inbounds nuw %"class.Imath_3_2::Box", ptr %7, i32 0, i32 0
  call void @_ZN9Imath_3_24Vec2IiEC2Ev(ptr noundef nonnull align 4 dereferenceable(8) %8) #3
  %9 = getelementptr inbounds nuw %"class.Imath_3_2::Box", ptr %7, i32 0, i32 1
  call void @_ZN9Imath_3_24Vec2IiEC2Ev(ptr noundef nonnull align 4 dereferenceable(8) %9) #3
  %10 = load ptr, ptr %5, align 8, !tbaa !176
  %11 = getelementptr inbounds nuw %"class.Imath_3_2::Box", ptr %7, i32 0, i32 0
  %12 = call noundef nonnull align 4 dereferenceable(8) ptr @_ZN9Imath_3_24Vec2IiEaSERKS1_(ptr noundef nonnull align 4 dereferenceable(8) %11, ptr noundef nonnull align 4 dereferenceable(8) %10) #3
  %13 = load ptr, ptr %6, align 8, !tbaa !176
  %14 = getelementptr inbounds nuw %"class.Imath_3_2::Box", ptr %7, i32 0, i32 1
  %15 = call noundef nonnull align 4 dereferenceable(8) ptr @_ZN9Imath_3_24Vec2IiEaSERKS1_(ptr noundef nonnull align 4 dereferenceable(8) %14, ptr noundef nonnull align 4 dereferenceable(8) %13) #3
  ret void
}

; Function Attrs: inlinehint mustprogress nounwind uwtable
define linkonce_odr dso_local void @_ZN9Imath_3_24Vec2IiEC2Eii(ptr noundef nonnull align 4 dereferenceable(8) %0, i32 noundef %1, i32 noundef %2) unnamed_addr #10 comdat align 2 {
  %4 = alloca ptr, align 8
  %5 = alloca i32, align 4
  %6 = alloca i32, align 4
  store ptr %0, ptr %4, align 8, !tbaa !176
  store i32 %1, ptr %5, align 4, !tbaa !13
  store i32 %2, ptr %6, align 4, !tbaa !13
  %7 = load ptr, ptr %4, align 8
  %8 = getelementptr inbounds nuw %"class.Imath_3_2::Vec2", ptr %7, i32 0, i32 0
  %9 = load i32, ptr %5, align 4, !tbaa !13
  store i32 %9, ptr %8, align 4, !tbaa !178
  %10 = getelementptr inbounds nuw %"class.Imath_3_2::Vec2", ptr %7, i32 0, i32 1
  %11 = load i32, ptr %6, align 4, !tbaa !13
  store i32 %11, ptr %10, align 4, !tbaa !179
  ret void
}

; Function Attrs: mustprogress uwtable
define dso_local void @_Z27writeRgba2ResizeFrameBufferPKcPKN7Imf_3_44RgbaEiiRKN9Imath_3_23BoxINS5_4Vec2IiEEEE(ptr noundef %0, ptr noundef %1, i32 noundef %2, i32 noundef %3, ptr noundef nonnull align 4 dereferenceable(16) %4) #6 personality ptr @__gxx_personality_v0 {
  %6 = alloca ptr, align 8
  %7 = alloca ptr, align 8
  %8 = alloca i32, align 4
  %9 = alloca i32, align 4
  %10 = alloca ptr, align 8
  %11 = alloca %"class.Imath_3_2::Box", align 4
  %12 = alloca %"class.Imath_3_2::Vec2", align 4
  %13 = alloca %"class.Imath_3_2::Vec2", align 4
  %14 = alloca %"class.Imf_3_4::RgbaOutputFile", align 8
  %15 = alloca %"class.Imath_3_2::Vec2.32", align 4
  %16 = alloca i32, align 4
  %17 = alloca ptr, align 8
  %18 = alloca i32, align 4
  store ptr %0, ptr %6, align 8, !tbaa !11
  store ptr %1, ptr %7, align 8, !tbaa !138
  store i32 %2, ptr %8, align 4, !tbaa !13
  store i32 %3, ptr %9, align 4, !tbaa !13
  store ptr %4, ptr %10, align 8, !tbaa !50
  call void @llvm.lifetime.start.p0(i64 16, ptr %11) #3
  call void @llvm.lifetime.start.p0(i64 8, ptr %12) #3
  call void @_ZN9Imath_3_24Vec2IiEC2Eii(ptr noundef nonnull align 4 dereferenceable(8) %12, i32 noundef 0, i32 noundef 0) #3
  call void @llvm.lifetime.start.p0(i64 8, ptr %13) #3
  %19 = load i32, ptr %8, align 4, !tbaa !13
  %20 = sub nsw i32 %19, 1
  %21 = load i32, ptr %9, align 4, !tbaa !13
  %22 = sub nsw i32 %21, 1
  call void @_ZN9Imath_3_24Vec2IiEC2Eii(ptr noundef nonnull align 4 dereferenceable(8) %13, i32 noundef %20, i32 noundef %22) #3
  call void @_ZN9Imath_3_23BoxINS_4Vec2IiEEEC2ERKS2_S5_(ptr noundef nonnull align 4 dereferenceable(16) %11, ptr noundef nonnull align 4 dereferenceable(8) %12, ptr noundef nonnull align 4 dereferenceable(8) %13) #3
  call void @llvm.lifetime.end.p0(i64 8, ptr %13) #3
  call void @llvm.lifetime.end.p0(i64 8, ptr %12) #3
  call void @llvm.lifetime.start.p0(i64 24, ptr %14) #3
  %23 = load ptr, ptr %6, align 8, !tbaa !11
  %24 = load ptr, ptr %10, align 8, !tbaa !50
  call void @_ZN9Imath_3_24Vec2IfEC2Eff(ptr noundef nonnull align 4 dereferenceable(8) %15, float noundef 0.000000e+00, float noundef 0.000000e+00) #3
  %25 = call noundef i32 @_ZN7Imf_3_417globalThreadCountEv()
  call void @_ZN7Imf_3_414RgbaOutputFileC1EPKcRKN9Imath_3_23BoxINS3_4Vec2IiEEEES9_NS_12RgbaChannelsEfNS5_IfEEfNS_9LineOrderENS_11CompressionEi(ptr noundef nonnull align 8 dereferenceable(24) %14, ptr noundef %23, ptr noundef nonnull align 4 dereferenceable(16) %11, ptr noundef nonnull align 4 dereferenceable(16) %24, i32 noundef 15, float noundef 1.000000e+00, ptr noundef %15, float noundef 1.000000e+00, i32 noundef 0, i32 noundef 4, i32 noundef %25)
  call void @llvm.lifetime.start.p0(i64 4, ptr %16) #3
  %26 = load ptr, ptr %10, align 8, !tbaa !50
  %27 = getelementptr inbounds nuw %"class.Imath_3_2::Box", ptr %26, i32 0, i32 1
  %28 = getelementptr inbounds nuw %"class.Imath_3_2::Vec2", ptr %27, i32 0, i32 0
  %29 = load i32, ptr %28, align 4, !tbaa !54
  %30 = load ptr, ptr %10, align 8, !tbaa !50
  %31 = getelementptr inbounds nuw %"class.Imath_3_2::Box", ptr %30, i32 0, i32 0
  %32 = getelementptr inbounds nuw %"class.Imath_3_2::Vec2", ptr %31, i32 0, i32 0
  %33 = load i32, ptr %32, align 4, !tbaa !57
  %34 = sub nsw i32 %29, %33
  %35 = add nsw i32 %34, 1
  store i32 %35, ptr %16, align 4, !tbaa !13
  %36 = load ptr, ptr %7, align 8, !tbaa !138
  %37 = load ptr, ptr %10, align 8, !tbaa !50
  %38 = getelementptr inbounds nuw %"class.Imath_3_2::Box", ptr %37, i32 0, i32 0
  %39 = getelementptr inbounds nuw %"class.Imath_3_2::Vec2", ptr %38, i32 0, i32 0
  %40 = load i32, ptr %39, align 4, !tbaa !57
  %41 = sext i32 %40 to i64
  %42 = sub i64 0, %41
  %43 = getelementptr inbounds %"struct.Imf_3_4::Rgba", ptr %36, i64 %42
  %44 = load ptr, ptr %10, align 8, !tbaa !50
  %45 = getelementptr inbounds nuw %"class.Imath_3_2::Box", ptr %44, i32 0, i32 0
  %46 = getelementptr inbounds nuw %"class.Imath_3_2::Vec2", ptr %45, i32 0, i32 1
  %47 = load i32, ptr %46, align 4, !tbaa !59
  %48 = load i32, ptr %16, align 4, !tbaa !13
  %49 = mul nsw i32 %47, %48
  %50 = sext i32 %49 to i64
  %51 = sub i64 0, %50
  %52 = getelementptr inbounds %"struct.Imf_3_4::Rgba", ptr %43, i64 %51
  %53 = load i32, ptr %16, align 4, !tbaa !13
  %54 = sext i32 %53 to i64
  invoke void @_ZN7Imf_3_414RgbaOutputFile14setFrameBufferEPKNS_4RgbaEmm(ptr noundef nonnull align 8 dereferenceable(24) %14, ptr noundef %52, i64 noundef 1, i64 noundef %54)
          to label %55 unwind label %56

55:                                               ; preds = %5
  call void @llvm.lifetime.end.p0(i64 4, ptr %16) #3
  call void @_ZN7Imf_3_414RgbaOutputFileD1Ev(ptr noundef nonnull align 8 dereferenceable(24) %14) #3
  call void @llvm.lifetime.end.p0(i64 24, ptr %14) #3
  call void @llvm.lifetime.end.p0(i64 16, ptr %11) #3
  ret void

56:                                               ; preds = %5
  %57 = landingpad { ptr, i32 }
          cleanup
  %58 = extractvalue { ptr, i32 } %57, 0
  store ptr %58, ptr %17, align 8
  %59 = extractvalue { ptr, i32 } %57, 1
  store i32 %59, ptr %18, align 4
  call void @llvm.lifetime.end.p0(i64 4, ptr %16) #3
  call void @_ZN7Imf_3_414RgbaOutputFileD1Ev(ptr noundef nonnull align 8 dereferenceable(24) %14) #3
  call void @llvm.lifetime.end.p0(i64 24, ptr %14) #3
  call void @llvm.lifetime.end.p0(i64 16, ptr %11) #3
  br label %60

60:                                               ; preds = %56
  %61 = load ptr, ptr %17, align 8
  %62 = load i32, ptr %18, align 4
  %63 = insertvalue { ptr, i32 } poison, ptr %61, 0
  %64 = insertvalue { ptr, i32 } %63, i32 %62, 1
  resume { ptr, i32 } %64
}