; Function Attrs: mustprogress uwtable
define dso_local void @_Z27writeRgba2ResizeFrameBufferPKcPKN7Imf_3_44RgbaEiiRKN9Imath_3_23BoxINS5_4Vec2IiEEEE(ptr noundef %0, ptr noundef %1, i32 noundef %2, i32 noundef %3, ptr noundef nonnull align 4 dereferenceable(16) %4) local_unnamed_addr #8 personality ptr @__gxx_personality_v0 {
  %6 = alloca %"class.Imath_3_2::Box", align 4
  %7 = alloca %"class.Imf_3_4::RgbaOutputFile", align 8
  %8 = alloca %"class.Imath_3_2::Vec2.32", align 4
  call void @llvm.lifetime.start.p0(i64 16, ptr nonnull %6) #36
  %9 = add nsw i32 %2, -1
  %10 = add nsw i32 %3, -1
  %11 = getelementptr inbounds nuw i8, ptr %6, i64 8
  store i32 0, ptr %6, align 4, !tbaa !60
  %12 = getelementptr inbounds nuw i8, ptr %6, i64 4
  store i32 0, ptr %12, align 4, !tbaa !62
  store i32 %9, ptr %11, align 4, !tbaa !60
  %13 = getelementptr inbounds nuw i8, ptr %6, i64 12
  store i32 %10, ptr %13, align 4, !tbaa !62
  call void @llvm.lifetime.start.p0(i64 24, ptr nonnull %7) #36
  store float 0.000000e+00, ptr %8, align 4, !tbaa !157
  %14 = getelementptr inbounds nuw i8, ptr %8, i64 4
  store float 0.000000e+00, ptr %14, align 4, !tbaa !159
  %15 = tail call noundef i32 @_ZN7Imf_3_417globalThreadCountEv()
  call void @_ZN7Imf_3_414RgbaOutputFileC1EPKcRKN9Imath_3_23BoxINS3_4Vec2IiEEEES9_NS_12RgbaChannelsEfNS5_IfEEfNS_9LineOrderENS_11CompressionEi(ptr noundef nonnull align 8 dereferenceable(24) %7, ptr noundef %0, ptr noundef nonnull align 4 dereferenceable(16) %6, ptr noundef nonnull align 4 dereferenceable(16) %4, i32 noundef 15, float noundef 1.000000e+00, ptr noundef nonnull %8, float noundef 1.000000e+00, i32 noundef 0, i32 noundef 4, i32 noundef %15)
  %16 = getelementptr inbounds nuw i8, ptr %4, i64 8
  %17 = load i32, ptr %16, align 4, !tbaa !63
  %18 = load i32, ptr %4, align 4, !tbaa !65
  %19 = sub nsw i32 %17, %18
  %20 = add nsw i32 %19, 1
  %21 = sext i32 %18 to i64
  %22 = sub nsw i64 0, %21
  %23 = getelementptr inbounds %"struct.Imf_3_4::Rgba", ptr %1, i64 %22
  %24 = getelementptr inbounds nuw i8, ptr %4, i64 4
  %25 = load i32, ptr %24, align 4, !tbaa !67
  %26 = mul nsw i32 %20, %25
  %27 = sext i32 %26 to i64
  %28 = sub nsw i64 0, %27
  %29 = getelementptr inbounds %"struct.Imf_3_4::Rgba", ptr %23, i64 %28
  %30 = sext i32 %20 to i64
  invoke void @_ZN7Imf_3_414RgbaOutputFile14setFrameBufferEPKNS_4RgbaEmm(ptr noundef nonnull align 8 dereferenceable(24) %7, ptr noundef %29, i64 noundef 1, i64 noundef %30)
          to label %31 unwind label %32

31:                                               ; preds = %5
  call void @_ZN7Imf_3_414RgbaOutputFileD1Ev(ptr noundef nonnull align 8 dereferenceable(24) %7) #36
  call void @llvm.lifetime.end.p0(i64 24, ptr nonnull %7) #36
  call void @llvm.lifetime.end.p0(i64 16, ptr nonnull %6) #36
  ret void

32:                                               ; preds = %5
  %33 = landingpad { ptr, i32 }
          cleanup
  call void @_ZN7Imf_3_414RgbaOutputFileD1Ev(ptr noundef nonnull align 8 dereferenceable(24) %7) #36
  call void @llvm.lifetime.end.p0(i64 24, ptr nonnull %7) #36
  call void @llvm.lifetime.end.p0(i64 16, ptr nonnull %6) #36
  resume { ptr, i32 } %33
}